; Function Attrs: mustprogress nofree norecurse nosync nounwind willreturn memory(argmem: readwrite) uwtable
define hidden noundef nonnull align 8 dereferenceable(8) ptr @_ZN19OpenColorIO_v2_5dev13GpuShaderText13GpuShaderLineaSERKS1_(ptr noundef nonnull returned writeonly align 8 dereferenceable(8) %0, ptr noundef nonnull readonly align 8 dereferenceable(8) %1) local_unnamed_addr #9 align 2 {
  %.not = icmp eq ptr %0, %1
  br i1 %.not, label %5, label %3

3:                                                ; preds = %2
  %4 = load ptr, ptr %1, align 8, !tbaa !3
  store ptr %4, ptr %0, align 8, !tbaa !3
  br label %5

5:                                                ; preds = %3, %2
  ret ptr %0
}